target datalayout = "e-m:e-p270:32:32-p271:32:32-p272:64:64-i64:64-i128:128-f80:128-n8:16:32:64-S128"
target triple = "x86_64-pc-linux-gnu"

%"class.std::__cxx11::basic_string" = type { %"struct.std::__cxx11::basic_string<char>::_Alloc_hider", i64, %union.anon }
%"struct.std::__cxx11::basic_string<char>::_Alloc_hider" = type { ptr }
%union.anon = type { i64, [8 x i8] }
%"struct.rocksdb::OperationProperty" = type { i32, %"class.std::__cxx11::basic_string" }
%"class.std::allocator" = type { i8 }

@__dso_handle = external hidden global i8
@_ZN7rocksdbL31compaction_operation_propertiesE = internal global [6 x %"struct.rocksdb::OperationProperty"] zeroinitializer, align 16
@_ZN7rocksdbL26flush_operation_propertiesE = internal global [3 x %"struct.rocksdb::OperationProperty"] zeroinitializer, align 16
@_ZZN7rocksdb12ThreadStatus24GetOperationPropertyNameB5cxx11ENS0_13OperationTypeEiE9empty_strB5cxx11 = internal global %"class.std::__cxx11::basic_string" zeroinitializer, align 8
@_ZGVZN7rocksdb12ThreadStatus24GetOperationPropertyNameB5cxx11ENS0_13OperationTypeEiE9empty_strB5cxx11 = internal global i64 0, align 8

; Function Attrs: mustprogress nounwind uwtable
define linkonce_odr void @_ZNSt15__new_allocatorIcEC2ERKS0_(ptr noundef nonnull align 1 dereferenceable(1) %0, ptr noundef nonnull align 1 dereferenceable(1) %1) unnamed_addr #2 comdat align 2 {
  %3 = alloca ptr, align 8
  %4 = alloca ptr, align 8
  store ptr %0, ptr %3, align 8, !tbaa !19
  store ptr %1, ptr %4, align 8, !tbaa !19
  ret void
}

; Function Attrs: mustprogress nounwind uwtable
define linkonce_odr void @_ZNSt11char_traitsIcE6assignERcRKc(ptr noundef nonnull align 1 dereferenceable(1) %0, ptr noundef nonnull align 1 dereferenceable(1) %1) #2 comdat align 2 {
  %3 = alloca ptr, align 8
  %4 = alloca ptr, align 8
  store ptr %0, ptr %3, align 8, !tbaa !18
  store ptr %1, ptr %4, align 8, !tbaa !18
  %5 = load ptr, ptr %4, align 8, !tbaa !18
  %6 = load i8, ptr %5, align 1, !tbaa !85
  %7 = load ptr, ptr %3, align 8, !tbaa !18
  store i8 %6, ptr %7, align 1, !tbaa !85
  ret void
}

; Function Attrs: mustprogress nounwind uwtable
define available_externally noundef ptr @_ZNKSt7__cxx1112basic_stringIcSt11char_traitsIcESaIcEE7_M_dataEv(ptr noundef nonnull align 8 dereferenceable(32) %0) #2 align 2 {
  %2 = alloca ptr, align 8
  store ptr %0, ptr %2, align 8, !tbaa !16
  %3 = load ptr, ptr %2, align 8
  %4 = getelementptr inbounds nuw %"class.std::__cxx11::basic_string", ptr %3, i32 0, i32 0
  %5 = getelementptr inbounds nuw %"struct.std::__cxx11::basic_string<char>::_Alloc_hider", ptr %4, i32 0, i32 0
  %6 = load ptr, ptr %5, align 8, !tbaa !83
  ret ptr %6
}

; Function Attrs: mustprogress nounwind uwtable
define available_externally void @_ZNSt7__cxx1112basic_stringIcSt11char_traitsIcESaIcEE9_M_lengthEm(ptr noundef nonnull align 8 dereferenceable(32) %0, i64 noundef %1) #2 align 2 {
  %3 = alloca ptr, align 8
  %4 = alloca i64, align 8
  store ptr %0, ptr %3, align 8, !tbaa !16
  store i64 %1, ptr %4, align 8, !tbaa !44
  %5 = load ptr, ptr %3, align 8
  %6 = load i64, ptr %4, align 8, !tbaa !44
  %7 = getelementptr inbounds nuw %"class.std::__cxx11::basic_string", ptr %5, i32 0, i32 1
  store i64 %6, ptr %7, align 8, !tbaa !84
  ret void
}

; Function Attrs: mustprogress nounwind uwtable
define available_externally void @_ZNSaIcEC2ERKS_(ptr noundef nonnull align 1 dereferenceable(1) %0, ptr noundef nonnull align 1 dereferenceable(1) %1) unnamed_addr #2 align 2 {
  %3 = alloca ptr, align 8
  %4 = alloca ptr, align 8
  store ptr %0, ptr %3, align 8, !tbaa !14
  store ptr %1, ptr %4, align 8, !tbaa !14
  %5 = load ptr, ptr %3, align 8
  %6 = load ptr, ptr %4, align 8, !tbaa !14
  call void @_ZNSt15__new_allocatorIcEC2ERKS0_(ptr noundef nonnull align 1 dereferenceable(1) %5, ptr noundef nonnull align 1 dereferenceable(1) %6) #5
  ret void
}

; Function Attrs: mustprogress nounwind uwtable
define linkonce_odr void @_ZNSt15__new_allocatorIcEC2Ev(ptr noundef nonnull align 1 dereferenceable(1) %0) unnamed_addr #2 comdat align 2 {
  %2 = alloca ptr, align 8
  store ptr %0, ptr %2, align 8, !tbaa !19
  ret void
}

; Function Attrs: mustprogress nounwind uwtable
define linkonce_odr noundef ptr @_ZNSt19__ptr_traits_ptr_toIPccLb0EE10pointer_toERc(ptr noundef nonnull align 1 dereferenceable(1) %0) #2 comdat align 2 {
  %2 = alloca ptr, align 8
  store ptr %0, ptr %2, align 8, !tbaa !18
  %3 = load ptr, ptr %2, align 8, !tbaa !18
  ret ptr %3
}

; Function Attrs: noinline noreturn nounwind uwtable
define linkonce_odr hidden void @__clang_call_terminate(ptr noundef %0) #7 comdat {
  %2 = call ptr @__cxa_begin_catch(ptr %0) #5
  call void @_ZSt9terminatev() #18
  unreachable
}

; Function Attrs: mustprogress uwtable
define available_externally void @_ZNSt7__cxx1112basic_stringIcSt11char_traitsIcESaIcEE13_M_set_lengthEm(ptr noundef nonnull align 8 dereferenceable(32) %0, i64 noundef %1) #3 align 2 {
  %3 = alloca ptr, align 8
  %4 = alloca i64, align 8
  %5 = alloca i8, align 1
  store ptr %0, ptr %3, align 8, !tbaa !16
  store i64 %1, ptr %4, align 8, !tbaa !44
  %6 = load ptr, ptr %3, align 8
  %7 = load i64, ptr %4, align 8, !tbaa !44
  call void @_ZNSt7__cxx1112basic_stringIcSt11char_traitsIcESaIcEE9_M_lengthEm(ptr noundef nonnull align 8 dereferenceable(32) %6, i64 noundef %7)
  %8 = call noundef ptr @_ZNKSt7__cxx1112basic_stringIcSt11char_traitsIcESaIcEE7_M_dataEv(ptr noundef nonnull align 8 dereferenceable(32) %6)
  %9 = load i64, ptr %4, align 8, !tbaa !44
  %10 = getelementptr inbounds nuw i8, ptr %8, i64 %9
  call void @llvm.lifetime.start.p0(i64 1, ptr %5) #5
  store i8 0, ptr %5, align 1, !tbaa !85
  call void @_ZNSt11char_traitsIcE6assignERcRKc(ptr noundef nonnull align 1 dereferenceable(1) %10, ptr noundef nonnull align 1 dereferenceable(1) %5) #5
  call void @llvm.lifetime.end.p0(i64 1, ptr %5) #5
  ret void
}

; Function Attrs: alwaysinline mustprogress nounwind uwtable
define available_externally noundef ptr @_ZNSt7__cxx1112basic_stringIcSt11char_traitsIcESaIcEE17_M_use_local_dataEv(ptr noundef nonnull align 8 dereferenceable(32) %0) #9 align 2 {
  %2 = alloca ptr, align 8
  store ptr %0, ptr %2, align 8, !tbaa !16
  %3 = load ptr, ptr %2, align 8
  %4 = call noundef ptr @_ZNSt7__cxx1112basic_stringIcSt11char_traitsIcESaIcEE13_M_local_dataEv(ptr noundef nonnull align 8 dereferenceable(32) %3)
  ret ptr %4
}

; Function Attrs: mustprogress nounwind uwtable
define linkonce_odr void @_ZNSt15__new_allocatorIcED2Ev(ptr noundef nonnull align 1 dereferenceable(1) %0) unnamed_addr #2 comdat align 2 {
  %2 = alloca ptr, align 8
  store ptr %0, ptr %2, align 8, !tbaa !19
  ret void
}

; Function Attrs: mustprogress nounwind uwtable
define available_externally void @_ZNSt7__cxx1112basic_stringIcSt11char_traitsIcESaIcEE12_Alloc_hiderC2EPcOS3_(ptr noundef nonnull align 8 dereferenceable(8) %0, ptr noundef %1, ptr noundef nonnull align 1 dereferenceable(1) %2) unnamed_addr #2 align 2 {
  %4 = alloca ptr, align 8
  %5 = alloca ptr, align 8
  %6 = alloca ptr, align 8
  store ptr %0, ptr %4, align 8, !tbaa !78
  store ptr %1, ptr %5, align 8, !tbaa !18
  store ptr %2, ptr %6, align 8, !tbaa !14
  %7 = load ptr, ptr %4, align 8
  %8 = load ptr, ptr %6, align 8, !tbaa !14
  call void @_ZNSaIcEC2ERKS_(ptr noundef nonnull align 1 dereferenceable(1) %7, ptr noundef nonnull align 1 dereferenceable(1) %8) #5
  %9 = getelementptr inbounds nuw %"struct.std::__cxx11::basic_string<char>::_Alloc_hider", ptr %7, i32 0, i32 0
  %10 = load ptr, ptr %5, align 8, !tbaa !18
  store ptr %10, ptr %9, align 8, !tbaa !80
  ret void
}

; Function Attrs: mustprogress nounwind uwtable
define available_externally void @_ZNSaIcEC2Ev(ptr noundef nonnull align 1 dereferenceable(1) %0) unnamed_addr #2 align 2 {
  %2 = alloca ptr, align 8
  store ptr %0, ptr %2, align 8, !tbaa !14
  %3 = load ptr, ptr %2, align 8
  call void @_ZNSt15__new_allocatorIcEC2Ev(ptr noundef nonnull align 1 dereferenceable(1) %3) #5
  ret void
}

; Function Attrs: mustprogress nounwind uwtable
define available_externally noundef ptr @_ZNSt7__cxx1112basic_stringIcSt11char_traitsIcESaIcEE13_M_local_dataEv(ptr noundef nonnull align 8 dereferenceable(32) %0) #2 align 2 {
  %2 = alloca ptr, align 8
  store ptr %0, ptr %2, align 8, !tbaa !16
  %3 = load ptr, ptr %2, align 8
  %4 = getelementptr inbounds nuw %"class.std::__cxx11::basic_string", ptr %3, i32 0, i32 2
  %5 = getelementptr inbounds [16 x i8], ptr %4, i64 0, i64 0
  %6 = call noundef ptr @_ZNSt19__ptr_traits_ptr_toIPccLb0EE10pointer_toERc(ptr noundef nonnull align 1 dereferenceable(1) %5) #5
  ret ptr %6
}

; Function Attrs: mustprogress nounwind uwtable
define available_externally void @_ZNSt7__cxx1112basic_stringIcSt11char_traitsIcESaIcEEC2Ev(ptr noundef nonnull align 8 dereferenceable(32) %0) unnamed_addr #2 align 2 personality ptr @__gxx_personality_v0 {
  %2 = alloca ptr, align 8
  %3 = alloca %"class.std::allocator", align 1
  store ptr %0, ptr %2, align 8, !tbaa !16
  %4 = load ptr, ptr %2, align 8
  %5 = getelementptr inbounds nuw %"class.std::__cxx11::basic_string", ptr %4, i32 0, i32 0
  %6 = call noundef ptr @_ZNSt7__cxx1112basic_stringIcSt11char_traitsIcESaIcEE13_M_local_dataEv(ptr noundef nonnull align 8 dereferenceable(32) %4)
  call void @llvm.lifetime.start.p0(i64 1, ptr %3) #5
  call void @_ZNSaIcEC2Ev(ptr noundef nonnull align 1 dereferenceable(1) %3) #5
  invoke void @_ZNSt7__cxx1112basic_stringIcSt11char_traitsIcESaIcEE12_Alloc_hiderC2EPcOS3_(ptr noundef nonnull align 8 dereferenceable(8) %5, ptr noundef %6, ptr noundef nonnull align 1 dereferenceable(1) %3)
          to label %7 unwind label %10

7:                                                ; preds = %1
  call void @_ZNSt15__new_allocatorIcED2Ev(ptr noundef nonnull align 1 dereferenceable(1) %3) #5
  call void @llvm.lifetime.end.p0(i64 1, ptr %3) #5
  %8 = call noundef ptr @_ZNSt7__cxx1112basic_stringIcSt11char_traitsIcESaIcEE17_M_use_local_dataEv(ptr noundef nonnull align 8 dereferenceable(32) %4) #5
  invoke void @_ZNSt7__cxx1112basic_stringIcSt11char_traitsIcESaIcEE13_M_set_lengthEm(ptr noundef nonnull align 8 dereferenceable(32) %4, i64 noundef 0)
          to label %9 unwind label %10

9:                                                ; preds = %7
  ret void

10:                                               ; preds = %7, %1
  %11 = landingpad { ptr, i32 }
          catch ptr null
  %12 = extractvalue { ptr, i32 } %11, 0
  call void @__clang_call_terminate(ptr %12) #18
  unreachable
}

; Function Attrs: mustprogress nounwind uwtable
define noundef nonnull align 8 dereferenceable(32) ptr @_ZN7rocksdb12ThreadStatus24GetOperationPropertyNameB5cxx11ENS0_13OperationTypeEi(i32 noundef %0, i32 noundef %1) #2 align 2 {
  %3 = alloca ptr, align 8
  %4 = alloca i32, align 4
  %5 = alloca i32, align 4
  store i32 %0, ptr %4, align 4, !tbaa !41
  store i32 %1, ptr %5, align 4, !tbaa !45
  %6 = load atomic i8, ptr @_ZGVZN7rocksdb12ThreadStatus24GetOperationPropertyNameB5cxx11ENS0_13OperationTypeEiE9empty_strB5cxx11 acquire, align 8
  %7 = icmp eq i8 %6, 0
  br i1 %7, label %8, label %13, !prof !46

8:                                                ; preds = %2
  %9 = call i32 @__cxa_guard_acquire(ptr @_ZGVZN7rocksdb12ThreadStatus24GetOperationPropertyNameB5cxx11ENS0_13OperationTypeEiE9empty_strB5cxx11) #5
  %10 = icmp ne i32 %9, 0
  br i1 %10, label %11, label %13

11:                                               ; preds = %8
  call void @_ZNSt7__cxx1112basic_stringIcSt11char_traitsIcESaIcEEC2Ev(ptr noundef nonnull align 8 dereferenceable(32) @_ZZN7rocksdb12ThreadStatus24GetOperationPropertyNameB5cxx11ENS0_13OperationTypeEiE9empty_strB5cxx11) #5
  %12 = call i32 @__cxa_atexit(ptr @_ZNSt7__cxx1112basic_stringIcSt11char_traitsIcESaIcEED2Ev, ptr @_ZZN7rocksdb12ThreadStatus24GetOperationPropertyNameB5cxx11ENS0_13OperationTypeEiE9empty_strB5cxx11, ptr @__dso_handle) #5
  call void @__cxa_guard_release(ptr @_ZGVZN7rocksdb12ThreadStatus24GetOperationPropertyNameB5cxx11ENS0_13OperationTypeEiE9empty_strB5cxx11) #5
  br label %13

13:                                               ; preds = %11, %8, %2
  %14 = load i32, ptr %4, align 4, !tbaa !41
  switch i32 %14, label %33 [
    i32 1, label %15
    i32 2, label %24
  ]

15:                                               ; preds = %13
  %16 = load i32, ptr %5, align 4, !tbaa !45
  %17 = icmp sge i32 %16, 6
  br i1 %17, label %18, label %19

18:                                               ; preds = %15
  store ptr @_ZZN7rocksdb12ThreadStatus24GetOperationPropertyNameB5cxx11ENS0_13OperationTypeEiE9empty_strB5cxx11, ptr %3, align 8
  br label %34

19:                                               ; preds = %15
  %20 = load i32, ptr %5, align 4, !tbaa !45
  %21 = sext i32 %20 to i64
  %22 = getelementptr inbounds [6 x %"struct.rocksdb::OperationProperty"], ptr @_ZN7rocksdbL31compaction_operation_propertiesE, i64 0, i64 %21
  %23 = getelementptr inbounds nuw %"struct.rocksdb::OperationProperty", ptr %22, i32 0, i32 1
  store ptr %23, ptr %3, align 8
  br label %34

24:                                               ; preds = %13
  %25 = load i32, ptr %5, align 4, !tbaa !45
  %26 = icmp sge i32 %25, 3
  br i1 %26, label %27, label %28

27:                                               ; preds = %24
  store ptr @_ZZN7rocksdb12ThreadStatus24GetOperationPropertyNameB5cxx11ENS0_13OperationTypeEiE9empty_strB5cxx11, ptr %3, align 8
  br label %34

28:                                               ; preds = %24
  %29 = load i32, ptr %5, align 4, !tbaa !45
  %30 = sext i32 %29 to i64
  %31 = getelementptr inbounds [3 x %"struct.rocksdb::OperationProperty"], ptr @_ZN7rocksdbL26flush_operation_propertiesE, i64 0, i64 %30
  %32 = getelementptr inbounds nuw %"struct.rocksdb::OperationProperty", ptr %31, i32 0, i32 1
  store ptr %32, ptr %3, align 8
  br label %34

33:                                               ; preds = %13
  store ptr @_ZZN7rocksdb12ThreadStatus24GetOperationPropertyNameB5cxx11ENS0_13OperationTypeEiE9empty_strB5cxx11, ptr %3, align 8
  br label %34

34:                                               ; preds = %33, %28, %27, %19, %18
  %35 = load ptr, ptr %3, align 8
  ret ptr %35
}