; Function Attrs: mustprogress nofree nounwind uwtable
define noundef nonnull align 8 dereferenceable(32) ptr @_ZN7rocksdb12ThreadStatus24GetOperationPropertyNameB5cxx11ENS0_13OperationTypeEi(i32 noundef %0, i32 noundef %1) local_unnamed_addr #7 align 2 personality ptr @__gxx_personality_v0 {
  %3 = load atomic i8, ptr @_ZGVZN7rocksdb12ThreadStatus24GetOperationPropertyNameB5cxx11ENS0_13OperationTypeEiE9empty_strB5cxx11 acquire, align 8
  %4 = icmp eq i8 %3, 0
  br i1 %4, label %5, label %9, !prof !16

5:                                                ; preds = %2
  %6 = tail call i32 @__cxa_guard_acquire(ptr nonnull @_ZGVZN7rocksdb12ThreadStatus24GetOperationPropertyNameB5cxx11ENS0_13OperationTypeEiE9empty_strB5cxx11) #21
  %.not = icmp eq i32 %6, 0
  br i1 %.not, label %9, label %7

7:                                                ; preds = %5
  store ptr getelementptr inbounds nuw (i8, ptr @_ZZN7rocksdb12ThreadStatus24GetOperationPropertyNameB5cxx11ENS0_13OperationTypeEiE9empty_strB5cxx11, i64 16), ptr @_ZZN7rocksdb12ThreadStatus24GetOperationPropertyNameB5cxx11ENS0_13OperationTypeEiE9empty_strB5cxx11, align 8, !tbaa !14
  store i64 0, ptr getelementptr inbounds nuw (i8, ptr @_ZZN7rocksdb12ThreadStatus24GetOperationPropertyNameB5cxx11ENS0_13OperationTypeEiE9empty_strB5cxx11, i64 8), align 8, !tbaa !12
  store i8 0, ptr getelementptr inbounds nuw (i8, ptr @_ZZN7rocksdb12ThreadStatus24GetOperationPropertyNameB5cxx11ENS0_13OperationTypeEiE9empty_strB5cxx11, i64 16), align 8, !tbaa !13
  %8 = tail call i32 @__cxa_atexit(ptr nonnull @_ZNSt7__cxx1112basic_stringIcSt11char_traitsIcESaIcEED2Ev, ptr nonnull @_ZZN7rocksdb12ThreadStatus24GetOperationPropertyNameB5cxx11ENS0_13OperationTypeEiE9empty_strB5cxx11, ptr nonnull @__dso_handle) #21
  tail call void @__cxa_guard_release(ptr nonnull @_ZGVZN7rocksdb12ThreadStatus24GetOperationPropertyNameB5cxx11ENS0_13OperationTypeEiE9empty_strB5cxx11) #21
  br label %9

9:                                                ; preds = %7, %5, %2
  switch i32 %0, label %20 [
    i32 1, label %10
    i32 2, label %15
  ]

10:                                               ; preds = %9
  %11 = icmp sgt i32 %1, 5
  br i1 %11, label %20, label %12

12:                                               ; preds = %10
  %13 = sext i32 %1 to i64
  %14 = getelementptr inbounds [6 x %"struct.rocksdb::OperationProperty"], ptr @_ZN7rocksdbL31compaction_operation_propertiesE, i64 0, i64 %13, i32 1
  br label %20

15:                                               ; preds = %9
  %16 = icmp sgt i32 %1, 2
  br i1 %16, label %20, label %17

17:                                               ; preds = %15
  %18 = sext i32 %1 to i64
  %19 = getelementptr inbounds [3 x %"struct.rocksdb::OperationProperty"], ptr @_ZN7rocksdbL26flush_operation_propertiesE, i64 0, i64 %18, i32 1
  br label %20

20:                                               ; preds = %9, %15, %10, %17, %12
  %.0 = phi ptr [ %19, %17 ], [ %14, %12 ], [ @_ZZN7rocksdb12ThreadStatus24GetOperationPropertyNameB5cxx11ENS0_13OperationTypeEiE9empty_strB5cxx11, %10 ], [ @_ZZN7rocksdb12ThreadStatus24GetOperationPropertyNameB5cxx11ENS0_13OperationTypeEiE9empty_strB5cxx11, %15 ], [ @_ZZN7rocksdb12ThreadStatus24GetOperationPropertyNameB5cxx11ENS0_13OperationTypeEiE9empty_strB5cxx11, %9 ]
  ret ptr %.0
}